; Function Attrs: mustprogress uwtable
define void @_ZN7xgboost3gbm17GPUDartPredictIncENS_6common4SpanIfLm18446744073709551615EEES3_fmjj(i64 %0, ptr readnone captures(none) %1, i64 %2, ptr readnone captures(none) %3, float noundef %4, i64 noundef %5, i32 noundef %6, i32 noundef %7) local_unnamed_addr #4 personality ptr @__gxx_personality_v0 {
  %9 = alloca %"class.dmlc::LogMessageFatal", align 1
  call void @llvm.lifetime.start.p0(i64 1, ptr nonnull %9) #23
  %10 = call noundef nonnull align 8 dereferenceable(376) ptr @_ZN4dmlc15LogMessageFatal8GetEntryEv(ptr noundef nonnull align 1 dereferenceable(1) %9)
  call void @_ZN4dmlc15LogMessageFatal5Entry4InitEPKci(ptr noundef nonnull align 8 dereferenceable(376) %10, ptr noundef nonnull @.str.106, i32 noundef 168)
  %11 = invoke noundef nonnull align 8 dereferenceable(376) ptr @_ZN4dmlc15LogMessageFatal8GetEntryEv(ptr noundef nonnull align 1 dereferenceable(1) %9)
          to label %_ZN4dmlc15LogMessageFatal6streamB5cxx11Ev.exit.i unwind label %13

_ZN4dmlc15LogMessageFatal6streamB5cxx11Ev.exit.i: ; preds = %8
  %12 = invoke noundef nonnull align 8 dereferenceable(8) ptr @_ZSt16__ostream_insertIcSt11char_traitsIcEERSt13basic_ostreamIT_T0_ES6_PKS3_l(ptr noundef nonnull align 8 dereferenceable(8) %11, ptr noundef nonnull @.str.107, i64 noundef 46)
          to label %_ZN7xgboost6common16AssertGPUSupportEv.exit unwind label %13

13:                                               ; preds = %_ZN4dmlc15LogMessageFatal6streamB5cxx11Ev.exit.i, %8
  %14 = landingpad { ptr, i32 }
          cleanup
  invoke void @_ZN4dmlc15LogMessageFatalD2Ev(ptr noundef nonnull align 1 dereferenceable(1) %9)
          to label %15 unwind label %16

15:                                               ; preds = %13
  call void @llvm.lifetime.end.p0(i64 1, ptr nonnull %9) #23
  resume { ptr, i32 } %14

16:                                               ; preds = %13
  %17 = landingpad { ptr, i32 }
          catch ptr null
  %18 = extractvalue { ptr, i32 } %17, 0
  call void @__clang_call_terminate(ptr %18) #38
  unreachable

_ZN7xgboost6common16AssertGPUSupportEv.exit:      ; preds = %_ZN4dmlc15LogMessageFatal6streamB5cxx11Ev.exit.i
  call void @_ZN4dmlc15LogMessageFatalD2Ev(ptr noundef nonnull align 1 dereferenceable(1) %9)
  call void @llvm.lifetime.end.p0(i64 1, ptr nonnull %9) #23
  ret void
}